; ModuleID = 'source-C-CXX/15/932.cpp'
source_filename = "source-C-CXX/15/932.cpp"
target datalayout = "e-m:e-p270:32:32-p271:32:32-p272:64:64-i64:64-f80:128-n8:16:32:64-S128"
target triple = "x86_64-pc-linux-gnu"

%"class.std::ios_base::Init" = type { i8 }
%"class.std::basic_istream" = type { i32 (...)**, i64, %"class.std::basic_ios" }
%"class.std::basic_ios" = type { %"class.std::ios_base", %"class.std::basic_ostream"*, i8, i8, %"class.std::basic_streambuf"*, %"class.std::ctype"*, %"class.std::num_put"*, %"class.std::num_get"* }
%"class.std::ios_base" = type { i32 (...)**, i64, i64, i32, i32, i32, %"struct.std::ios_base::_Callback_list"*, %"struct.std::ios_base::_Words", [8 x %"struct.std::ios_base::_Words"], i32, %"struct.std::ios_base::_Words"*, %"class.std::locale" }
%"struct.std::ios_base::_Callback_list" = type { %"struct.std::ios_base::_Callback_list"*, void (i32, %"class.std::ios_base"*, i32)*, i32, i32 }
%"struct.std::ios_base::_Words" = type { i8*, i64 }
%"class.std::locale" = type { %"class.std::locale::_Impl"* }
%"class.std::locale::_Impl" = type { i32, %"class.std::locale::facet"**, i64, %"class.std::locale::facet"**, i8** }
%"class.std::locale::facet" = type <{ i32 (...)**, i32, [4 x i8] }>
%"class.std::basic_ostream" = type { i32 (...)**, %"class.std::basic_ios" }
%"class.std::basic_streambuf" = type { i32 (...)**, i8*, i8*, i8*, i8*, i8*, i8*, %"class.std::locale" }
%"class.std::ctype" = type <{ %"class.std::locale::facet.base", [4 x i8], %struct.__locale_struct*, i8, [7 x i8], i32*, i32*, i16*, i8, [256 x i8], [256 x i8], i8, [6 x i8] }>
%"class.std::locale::facet.base" = type <{ i32 (...)**, i32 }>
%struct.__locale_struct = type { [13 x %struct.__locale_data*], i16*, i32*, i32*, [13 x i8*] }
%struct.__locale_data = type opaque
%"class.std::num_put" = type { %"class.std::locale::facet.base", [4 x i8] }
%"class.std::num_get" = type { %"class.std::locale::facet.base", [4 x i8] }

@_ZStL8__ioinit = internal global %"class.std::ios_base::Init" zeroinitializer, align 1
@__dso_handle = external hidden global i8
@_ZSt3cin = external global %"class.std::basic_istream", align 8
@_ZSt4cout = external global %"class.std::basic_ostream", align 8
@.str = private unnamed_addr constant [6 x i8] c"00001\00", align 1
@llvm.global_ctors = appending global [1 x { i32, void ()*, i8* }] [{ i32, void ()*, i8* } { i32 65535, void ()* @_GLOBAL__sub_I_932.cpp, i8* null }]

declare void @_ZNSt8ios_base4InitC1Ev(%"class.std::ios_base::Init"* nonnull align 1 dereferenceable(1)) unnamed_addr #0

; Function Attrs: nounwind
declare void @_ZNSt8ios_base4InitD1Ev(%"class.std::ios_base::Init"* nonnull align 1 dereferenceable(1)) unnamed_addr #1

; Function Attrs: nofree nounwind
declare i32 @__cxa_atexit(void (i8*)*, i8*, i8*) local_unnamed_addr #2

; Function Attrs: mustprogress norecurse sspstrong uwtable
define dso_local i32 @main() local_unnamed_addr #3 {
  %1 = alloca i32, align 4
  %2 = alloca [4 x i32], align 16
  %3 = bitcast i32* %1 to i8*
  call void @llvm.lifetime.start.p0i8(i64 4, i8* nonnull %3) #8
  %4 = call nonnull align 8 dereferenceable(16) %"class.std::basic_istream"* @_ZNSirsERi(%"class.std::basic_istream"* nonnull align 8 dereferenceable(16) @_ZSt3cin, i32* nonnull align 4 dereferenceable(4) %1)
  %5 = bitcast [4 x i32]* %2 to i8*
  call void @llvm.lifetime.start.p0i8(i64 16, i8* nonnull %5) #8
  %6 = load i32, i32* %1, align 4, !tbaa !5
  %7 = icmp eq i32 %6, 10000
  br i1 %7, label %8, label %37

8:                                                ; preds = %0
  %9 = call nonnull align 8 dereferenceable(8) %"class.std::basic_ostream"* @_ZSt16__ostream_insertIcSt11char_traitsIcEERSt13basic_ostreamIT_T0_ES6_PKS3_l(%"class.std::basic_ostream"* nonnull align 8 dereferenceable(8) @_ZSt4cout, i8* nonnull getelementptr inbounds ([6 x i8], [6 x i8]* @.str, i64 0, i64 0), i64 5)
  %10 = load i8*, i8** bitcast (%"class.std::basic_ostream"* @_ZSt4cout to i8**), align 8, !tbaa !9
  %11 = getelementptr i8, i8* %10, i64 -24
  %12 = bitcast i8* %11 to i64*
  %13 = load i64, i64* %12, align 8
  %14 = add nsw i64 %13, 240
  %15 = getelementptr inbounds i8, i8* bitcast (%"class.std::basic_ostream"* @_ZSt4cout to i8*), i64 %14
  %16 = bitcast i8* %15 to %"class.std::ctype"**
  %17 = load %"class.std::ctype"*, %"class.std::ctype"** %16, align 8, !tbaa !11
  %18 = icmp eq %"class.std::ctype"* %17, null
  br i1 %18, label %19, label %20

19:                                               ; preds = %8
  call void @_ZSt16__throw_bad_castv() #9
  unreachable

20:                                               ; preds = %8
  %21 = getelementptr inbounds %"class.std::ctype", %"class.std::ctype"* %17, i64 0, i32 8
  %22 = load i8, i8* %21, align 8, !tbaa !15
  %23 = icmp eq i8 %22, 0
  br i1 %23, label %27, label %24

24:                                               ; preds = %20
  %25 = getelementptr inbounds %"class.std::ctype", %"class.std::ctype"* %17, i64 0, i32 9, i64 10
  %26 = load i8, i8* %25, align 1, !tbaa !17
  br label %33

27:                                               ; preds = %20
  call void @_ZNKSt5ctypeIcE13_M_widen_initEv(%"class.std::ctype"* nonnull align 8 dereferenceable(570) %17)
  %28 = bitcast %"class.std::ctype"* %17 to i8 (%"class.std::ctype"*, i8)***
  %29 = load i8 (%"class.std::ctype"*, i8)**, i8 (%"class.std::ctype"*, i8)*** %28, align 8, !tbaa !9
  %30 = getelementptr inbounds i8 (%"class.std::ctype"*, i8)*, i8 (%"class.std::ctype"*, i8)** %29, i64 6
  %31 = load i8 (%"class.std::ctype"*, i8)*, i8 (%"class.std::ctype"*, i8)** %30, align 8
  %32 = call signext i8 %31(%"class.std::ctype"* nonnull align 8 dereferenceable(570) %17, i8 signext 10)
  br label %33

33:                                               ; preds = %24, %27
  %34 = phi i8 [ %26, %24 ], [ %32, %27 ]
  %35 = call nonnull align 8 dereferenceable(8) %"class.std::basic_ostream"* @_ZNSo3putEc(%"class.std::basic_ostream"* nonnull align 8 dereferenceable(8) @_ZSt4cout, i8 signext %34)
  %36 = call nonnull align 8 dereferenceable(8) %"class.std::basic_ostream"* @_ZNSo5flushEv(%"class.std::basic_ostream"* nonnull align 8 dereferenceable(8) %35)
  br label %47

37:                                               ; preds = %0
  %38 = add i32 %6, 9
  %39 = icmp ult i32 %38, 19
  br i1 %39, label %47, label %40

40:                                               ; preds = %37
  %41 = add i32 %6, 99
  %42 = icmp ult i32 %41, 199
  br i1 %42, label %47, label %43

43:                                               ; preds = %40
  %44 = add i32 %6, 999
  %45 = icmp ult i32 %44, 1999
  %46 = select i1 %45, i32 2, i32 3
  br label %47

47:                                               ; preds = %33, %37, %40, %43
  %48 = phi i32 [ undef, %33 ], [ 0, %37 ], [ 1, %40 ], [ %46, %43 ]
  %49 = zext i32 %48 to i64
  %50 = load i32, i32* %1, align 4, !tbaa !5
  br label %54

51:                                               ; preds = %54
  %52 = add nuw i32 %48, 1
  %53 = zext i32 %52 to i64
  br label %73

54:                                               ; preds = %47, %54
  %55 = phi i32 [ %50, %47 ], [ %70, %54 ]
  %56 = phi i64 [ %49, %47 ], [ %72, %54 ]
  %57 = sitofp i32 %55 to double
  %58 = trunc i64 %56 to i32
  %59 = sitofp i32 %58 to double
  %60 = call double @pow(double 1.000000e+01, double %59) #8
  %61 = fdiv double %57, %60
  %62 = fptosi double %61 to i32
  %63 = getelementptr inbounds [4 x i32], [4 x i32]* %2, i64 0, i64 %56
  store i32 %62, i32* %63, align 4, !tbaa !5
  %64 = load i32, i32* %1, align 4, !tbaa !5
  %65 = sitofp i32 %64 to double
  %66 = call double @pow(double 1.000000e+01, double %59) #8
  %67 = sitofp i32 %62 to double
  %68 = fmul double %66, %67
  %69 = fsub double %65, %68
  %70 = fptosi double %69 to i32
  store i32 %70, i32* %1, align 4, !tbaa !5
  %71 = icmp sgt i64 %56, 0
  %72 = add nsw i64 %56, -1
  br i1 %71, label %54, label %51, !llvm.loop !18

73:                                               ; preds = %51, %73
  %74 = phi i64 [ 0, %51 ], [ %78, %73 ]
  %75 = getelementptr inbounds [4 x i32], [4 x i32]* %2, i64 0, i64 %74
  %76 = load i32, i32* %75, align 4, !tbaa !5
  %77 = call nonnull align 8 dereferenceable(8) %"class.std::basic_ostream"* @_ZNSolsEi(%"class.std::basic_ostream"* nonnull align 8 dereferenceable(8) @_ZSt4cout, i32 %76)
  %78 = add nuw nsw i64 %74, 1
  %79 = icmp eq i64 %78, %53
  br i1 %79, label %80, label %73, !llvm.loop !20

80:                                               ; preds = %73
  call void @llvm.lifetime.end.p0i8(i64 16, i8* nonnull %5) #8
  call void @llvm.lifetime.end.p0i8(i64 4, i8* nonnull %3) #8
  ret i32 0
}

; Function Attrs: argmemonly mustprogress nofree nosync nounwind willreturn
declare void @llvm.lifetime.start.p0i8(i64 immarg, i8* nocapture) #4

declare nonnull align 8 dereferenceable(16) %"class.std::basic_istream"* @_ZNSirsERi(%"class.std::basic_istream"* nonnull align 8 dereferenceable(16), i32* nonnull align 4 dereferenceable(4)) local_unnamed_addr #0

declare nonnull align 8 dereferenceable(8) %"class.std::basic_ostream"* @_ZNSolsEi(%"class.std::basic_ostream"* nonnull align 8 dereferenceable(8), i32) local_unnamed_addr #0

; Function Attrs: argmemonly mustprogress nofree nosync nounwind willreturn
declare void @llvm.lifetime.end.p0i8(i64 immarg, i8* nocapture) #4

; Function Attrs: mustprogress nofree nounwind willreturn
declare double @pow(double, double) local_unnamed_addr #5

declare nonnull align 8 dereferenceable(8) %"class.std::basic_ostream"* @_ZSt16__ostream_insertIcSt11char_traitsIcEERSt13basic_ostreamIT_T0_ES6_PKS3_l(%"class.std::basic_ostream"* nonnull align 8 dereferenceable(8), i8*, i64) local_unnamed_addr #0

declare nonnull align 8 dereferenceable(8) %"class.std::basic_ostream"* @_ZNSo3putEc(%"class.std::basic_ostream"* nonnull align 8 dereferenceable(8), i8 signext) local_unnamed_addr #0

declare nonnull align 8 dereferenceable(8) %"class.std::basic_ostream"* @_ZNSo5flushEv(%"class.std::basic_ostream"* nonnull align 8 dereferenceable(8)) local_unnamed_addr #0

; Function Attrs: noreturn
declare void @_ZSt16__throw_bad_castv() local_unnamed_addr #6

declare void @_ZNKSt5ctypeIcE13_M_widen_initEv(%"class.std::ctype"* nonnull align 8 dereferenceable(570)) local_unnamed_addr #0

; Function Attrs: sspstrong uwtable
define internal void @_GLOBAL__sub_I_932.cpp() #7 section ".text.startup" {
  tail call void @_ZNSt8ios_base4InitC1Ev(%"class.std::ios_base::Init"* nonnull align 1 dereferenceable(1) @_ZStL8__ioinit)
  %1 = tail call i32 @__cxa_atexit(void (i8*)* bitcast (void (%"class.std::ios_base::Init"*)* @_ZNSt8ios_base4InitD1Ev to void (i8*)*), i8* getelementptr inbounds (%"class.std::ios_base::Init", %"class.std::ios_base::Init"* @_ZStL8__ioinit, i64 0, i32 0), i8* nonnull @__dso_handle) #8
  ret void
}


!llvm.module.flags = !{!0, !1, !2, !3}
!llvm.ident = !{!4}

!0 = !{i32 1, !"wchar_size", i32 4}
!1 = !{i32 7, !"PIC Level", i32 2}
!2 = !{i32 7, !"PIE Level", i32 2}
!3 = !{i32 7, !"uwtable", i32 1}
!4 = !{!"clang version 13.0.0"}
!5 = !{!6, !6, i64 0}
!6 = !{!"int", !7, i64 0}
!7 = !{!"omnipotent char", !8, i64 0}
!8 = !{!"Simple C++ TBAA"}
!9 = !{!10, !10, i64 0}
!10 = !{!"vtable pointer", !8, i64 0}
!11 = !{!12, !13, i64 240}
!12 = !{!"_ZTSSt9basic_iosIcSt11char_traitsIcEE", !13, i64 216, !7, i64 224, !14, i64 225, !13, i64 232, !13, i64 240, !13, i64 248, !13, i64 256}
!13 = !{!"any pointer", !7, i64 0}
!14 = !{!"bool", !7, i64 0}
!15 = !{!16, !7, i64 56}
!16 = !{!"_ZTSSt5ctypeIcE", !13, i64 16, !14, i64 24, !13, i64 32, !13, i64 40, !13, i64 48, !7, i64 56, !7, i64 57, !7, i64 313, !7, i64 569}
!17 = !{!7, !7, i64 0}
!18 = distinct !{!18, !19}
!19 = !{!"llvm.loop.mustprogress"}
!20 = distinct !{!20, !19}
